target datalayout = "e-m:e-p270:32:32-p271:32:32-p272:64:64-i64:64-i128:128-f80:128-n8:16:32:64-S128"
target triple = "x86_64-pc-linux-gnu"

%struct._address = type { i32, i32, ptr, ptr }
%struct._packet_info = type { ptr, ptr, i32, i32, %struct.nstime_t, %struct.nstime_t, %struct.nstime_t, i8, ptr, ptr, ptr, ptr, %struct._address, %struct._address, %struct._address, %struct._address, %struct._address, %struct._address, i32, ptr, i8, [3 x i8], %struct.anon, i32, i32, i32, i32, ptr, i8, ptr, ptr, i16, i16, i32, i32, i16, i32, i32, ptr, ptr, ptr, i8, i8, i16, i16, i16, i32, i16, i16, ptr, ptr, ptr, ptr, ptr, i32, i32 }
%struct.nstime_t = type { i64, i32 }
%struct.anon = type { i8, [3 x i8] }

@ett_dvbci_ami_req_types = internal global i32 0, align 4
@.str.315 = private unnamed_addr constant [5 x i8] c"Data\00", align 1
@hf_dvbci_req_type = internal global i32 0, align 4
@hf_dvbci_file_name_len = internal global i32 0, align 4
@hf_dvbci_file_name = internal global i32 0, align 4
@hf_dvbci_file_data_len = internal global i32 0, align 4
@hf_dvbci_ami_priv_data = internal global i32 0, align 4
@hf_dvbci_req_ok = internal global i32 0, align 4
@hf_dvbci_file_ok = internal global i32 0, align 4
@mime_handle = internal global ptr null, align 8
@.str.990 = private unnamed_addr constant [3 x i8] c": \00", align 1
@.str.1001 = private unnamed_addr constant [3 x i8] c", \00", align 1
@.str.1006 = private unnamed_addr constant [8 x i8] c"unknown\00", align 1
@.str.1020 = private unnamed_addr constant [2 x i8] c" \00", align 1
@.str.1069 = private unnamed_addr constant [3 x i8] c"%s\00", align 1
@.str.1070 = private unnamed_addr constant [24 x i8] c"Supported request types\00", align 1
@.str.1071 = private unnamed_addr constant [21 x i8] c"cached copy is valid\00", align 1

; Function Attrs: null_pointer_is_valid sspstrong uwtable
define internal void @dissect_dvbci_ami_file_ack(ptr noundef %0, i32 noundef %1, ptr noundef %2, ptr noundef %3) #0 {
  %5 = alloca ptr, align 8
  %6 = alloca i32, align 4
  %7 = alloca ptr, align 8
  %8 = alloca ptr, align 8
  %9 = alloca i8, align 1
  %10 = alloca i8, align 1
  %11 = alloca i8, align 1
  %12 = alloca i8, align 1
  %13 = alloca ptr, align 8
  %14 = alloca i32, align 4
  %15 = alloca ptr, align 8
  %16 = alloca i32, align 4
  store ptr %0, ptr %5, align 8
  store i32 %1, ptr %6, align 4
  store ptr %2, ptr %7, align 8
  store ptr %3, ptr %8, align 8
  call void @llvm.lifetime.start.p0(i64 1, ptr %9) #11
  call void @llvm.lifetime.start.p0(i64 1, ptr %10) #11
  store i8 0, ptr %10, align 1
  call void @llvm.lifetime.start.p0(i64 1, ptr %11) #11
  call void @llvm.lifetime.start.p0(i64 1, ptr %12) #11
  call void @llvm.lifetime.start.p0(i64 8, ptr %13) #11
  call void @llvm.lifetime.start.p0(i64 4, ptr %14) #11
  call void @llvm.lifetime.start.p0(i64 8, ptr %15) #11
  %17 = load ptr, ptr %5, align 8
  %18 = load i32, ptr %6, align 4
  %19 = add i32 %18, 1
  %20 = call zeroext i8 @tvb_get_uint8(ptr noundef %17, i32 noundef %19)
  store i8 %20, ptr %9, align 1
  %21 = load i8, ptr %9, align 1
  %22 = zext i8 %21 to i32
  %23 = icmp eq i32 %22, 2
  br i1 %23, label %24, label %37

24:                                               ; preds = %4
  %25 = load ptr, ptr %5, align 8
  %26 = load i32, ptr %6, align 4
  %27 = call zeroext i8 @tvb_get_uint8(ptr noundef %25, i32 noundef %26)
  %28 = zext i8 %27 to i32
  %29 = and i32 %28, 2
  %30 = icmp eq i32 %29, 2
  %31 = zext i1 %30 to i8
  store i8 %31, ptr %10, align 1
  %32 = load ptr, ptr %8, align 8
  %33 = load i32, ptr @hf_dvbci_req_ok, align 4
  %34 = load ptr, ptr %5, align 8
  %35 = load i32, ptr %6, align 4
  %36 = call ptr @proto_tree_add_item(ptr noundef %32, i32 noundef %33, ptr noundef %34, i32 noundef %35, i32 noundef 1, i32 noundef 0)
  br label %37

37:                                               ; preds = %24, %4
  %38 = load ptr, ptr %5, align 8
  %39 = load i32, ptr %6, align 4
  %40 = call zeroext i8 @tvb_get_uint8(ptr noundef %38, i32 noundef %39)
  %41 = zext i8 %40 to i32
  %42 = and i32 %41, 1
  %43 = icmp eq i32 %42, 1
  %44 = zext i1 %43 to i8
  store i8 %44, ptr %11, align 1
  %45 = load ptr, ptr %8, align 8
  %46 = load i32, ptr @hf_dvbci_file_ok, align 4
  %47 = load ptr, ptr %5, align 8
  %48 = load i32, ptr %6, align 4
  %49 = call ptr @proto_tree_add_item(ptr noundef %45, i32 noundef %46, ptr noundef %47, i32 noundef %48, i32 noundef 1, i32 noundef 0)
  %50 = load i32, ptr %6, align 4
  %51 = add i32 %50, 1
  store i32 %51, ptr %6, align 4
  %52 = load ptr, ptr %8, align 8
  %53 = load i32, ptr @hf_dvbci_req_type, align 4
  %54 = load ptr, ptr %5, align 8
  %55 = load i32, ptr %6, align 4
  %56 = call ptr @proto_tree_add_item(ptr noundef %52, i32 noundef %53, ptr noundef %54, i32 noundef %55, i32 noundef 1, i32 noundef 0)
  %57 = load ptr, ptr %7, align 8
  %58 = getelementptr inbounds nuw %struct._packet_info, ptr %57, i32 0, i32 1
  %59 = load ptr, ptr %58, align 8
  %60 = load i8, ptr %9, align 1
  %61 = zext i8 %60 to i32
  %62 = call ptr @val_to_str_const(i32 noundef %61, ptr noundef @dvbci_req_type, ptr noundef @.str.1006)
  call void @col_append_sep_str(ptr noundef %59, i32 noundef 25, ptr noundef @.str.990, ptr noundef %62)
  %63 = load i32, ptr %6, align 4
  %64 = add i32 %63, 1
  store i32 %64, ptr %6, align 4
  %65 = load i8, ptr %9, align 1
  %66 = zext i8 %65 to i32
  %67 = icmp eq i32 %66, 0
  br i1 %67, label %72, label %68

68:                                               ; preds = %37
  %69 = load i8, ptr %9, align 1
  %70 = zext i8 %69 to i32
  %71 = icmp eq i32 %70, 2
  br i1 %71, label %72, label %146

72:                                               ; preds = %68, %37
  %73 = load ptr, ptr %5, align 8
  %74 = load i32, ptr %6, align 4
  %75 = call zeroext i8 @tvb_get_uint8(ptr noundef %73, i32 noundef %74)
  store i8 %75, ptr %12, align 1
  %76 = load ptr, ptr %8, align 8
  %77 = load i32, ptr @hf_dvbci_file_name_len, align 4
  %78 = load ptr, ptr %5, align 8
  %79 = load i32, ptr %6, align 4
  %80 = call ptr @proto_tree_add_item(ptr noundef %76, i32 noundef %77, ptr noundef %78, i32 noundef %79, i32 noundef 1, i32 noundef 0)
  %81 = load i32, ptr %6, align 4
  %82 = add i32 %81, 1
  store i32 %82, ptr %6, align 4
  %83 = load ptr, ptr %7, align 8
  %84 = getelementptr inbounds nuw %struct._packet_info, ptr %83, i32 0, i32 51
  %85 = load ptr, ptr %84, align 8
  %86 = load ptr, ptr %5, align 8
  %87 = load i32, ptr %6, align 4
  %88 = load i8, ptr %12, align 1
  %89 = zext i8 %88 to i32
  %90 = call ptr @tvb_get_string_enc(ptr noundef %85, ptr noundef %86, i32 noundef %87, i32 noundef %89, i32 noundef 0)
  store ptr %90, ptr %13, align 8
  %91 = load ptr, ptr %13, align 8
  %92 = icmp ne ptr %91, null
  br i1 %92, label %94, label %93

93:                                               ; preds = %72
  store i32 1, ptr %16, align 4
  br label %209

94:                                               ; preds = %72
  %95 = load ptr, ptr %7, align 8
  %96 = getelementptr inbounds nuw %struct._packet_info, ptr %95, i32 0, i32 1
  %97 = load ptr, ptr %96, align 8
  %98 = load ptr, ptr %13, align 8
  call void @col_append_sep_str(ptr noundef %97, i32 noundef 25, ptr noundef @.str.1020, ptr noundef %98)
  %99 = load ptr, ptr %8, align 8
  %100 = load i32, ptr @hf_dvbci_file_name, align 4
  %101 = load ptr, ptr %5, align 8
  %102 = load i32, ptr %6, align 4
  %103 = load i8, ptr %12, align 1
  %104 = zext i8 %103 to i32
  %105 = load ptr, ptr %13, align 8
  %106 = load ptr, ptr %13, align 8
  %107 = call ptr (ptr, i32, ptr, i32, i32, ptr, ptr, ...) @proto_tree_add_string_format_value(ptr noundef %99, i32 noundef %100, ptr noundef %101, i32 noundef %102, i32 noundef %104, ptr noundef %105, ptr noundef @.str.1069, ptr noundef %106)
  %108 = load i8, ptr %12, align 1
  %109 = zext i8 %108 to i32
  %110 = load i32, ptr %6, align 4
  %111 = add i32 %110, %109
  store i32 %111, ptr %6, align 4
  %112 = load ptr, ptr %5, align 8
  %113 = load i32, ptr %6, align 4
  %114 = call i32 @tvb_get_ntohl(ptr noundef %112, i32 noundef %113)
  store i32 %114, ptr %14, align 4
  %115 = load ptr, ptr %8, align 8
  %116 = load i32, ptr @hf_dvbci_file_data_len, align 4
  %117 = load ptr, ptr %5, align 8
  %118 = load i32, ptr %6, align 4
  %119 = call ptr @proto_tree_add_item(ptr noundef %115, i32 noundef %116, ptr noundef %117, i32 noundef %118, i32 noundef 4, i32 noundef 0)
  %120 = load i32, ptr %6, align 4
  %121 = add i32 %120, 4
  store i32 %121, ptr %6, align 4
  %122 = load i32, ptr %14, align 4
  %123 = icmp ugt i32 %122, 0
  br i1 %123, label %124, label %145

124:                                              ; preds = %94
  %125 = load ptr, ptr %7, align 8
  %126 = getelementptr inbounds nuw %struct._packet_info, ptr %125, i32 0, i32 1
  %127 = load ptr, ptr %126, align 8
  call void @col_append_str(ptr noundef %127, i32 noundef 35, ptr noundef @.str.1001)
  %128 = load ptr, ptr %7, align 8
  %129 = getelementptr inbounds nuw %struct._packet_info, ptr %128, i32 0, i32 1
  %130 = load ptr, ptr %129, align 8
  call void @col_set_fence(ptr noundef %130, i32 noundef 35)
  %131 = load ptr, ptr %7, align 8
  %132 = getelementptr inbounds nuw %struct._packet_info, ptr %131, i32 0, i32 1
  %133 = load ptr, ptr %132, align 8
  call void @col_append_str(ptr noundef %133, i32 noundef 35, ptr noundef @.str.315)
  %134 = load ptr, ptr %7, align 8
  %135 = getelementptr inbounds nuw %struct._packet_info, ptr %134, i32 0, i32 1
  %136 = load ptr, ptr %135, align 8
  call void @col_set_fence(ptr noundef %136, i32 noundef 25)
  %137 = load ptr, ptr @mime_handle, align 8
  %138 = load ptr, ptr %5, align 8
  %139 = load i32, ptr %6, align 4
  %140 = load i32, ptr %14, align 4
  %141 = call ptr @tvb_new_subset_length(ptr noundef %138, i32 noundef %139, i32 noundef %140)
  %142 = load ptr, ptr %7, align 8
  %143 = load ptr, ptr %8, align 8
  %144 = call i32 @call_dissector(ptr noundef %137, ptr noundef %141, ptr noundef %142, ptr noundef %143)
  br label %145

145:                                              ; preds = %124, %94
  br label %194

146:                                              ; preds = %68
  %147 = load i8, ptr %9, align 1
  %148 = zext i8 %147 to i32
  %149 = icmp eq i32 %148, 1
  br i1 %149, label %150, label %165

150:                                              ; preds = %146
  %151 = load ptr, ptr %5, align 8
  %152 = load i32, ptr %6, align 4
  %153 = call i32 @tvb_reported_length_remaining(ptr noundef %151, i32 noundef %152)
  %154 = icmp sle i32 %153, 0
  br i1 %154, label %155, label %156

155:                                              ; preds = %150
  store i32 1, ptr %16, align 4
  br label %209

156:                                              ; preds = %150
  %157 = load ptr, ptr %8, align 8
  %158 = load i32, ptr @hf_dvbci_ami_priv_data, align 4
  %159 = load ptr, ptr %5, align 8
  %160 = load i32, ptr %6, align 4
  %161 = load ptr, ptr %5, align 8
  %162 = load i32, ptr %6, align 4
  %163 = call i32 @tvb_reported_length_remaining(ptr noundef %161, i32 noundef %162)
  %164 = call ptr @proto_tree_add_item(ptr noundef %157, i32 noundef %158, ptr noundef %159, i32 noundef %160, i32 noundef %163, i32 noundef 0)
  br label %193

165:                                              ; preds = %146
  %166 = load i8, ptr %9, align 1
  %167 = zext i8 %166 to i32
  %168 = icmp eq i32 %167, 3
  br i1 %168, label %169, label %192

169:                                              ; preds = %165
  %170 = load ptr, ptr %8, align 8
  %171 = load ptr, ptr %5, align 8
  %172 = load i32, ptr %6, align 4
  %173 = load ptr, ptr %5, align 8
  %174 = load i32, ptr %6, align 4
  %175 = call i32 @tvb_reported_length_remaining(ptr noundef %173, i32 noundef %174)
  %176 = load i32, ptr @ett_dvbci_ami_req_types, align 4
  %177 = call ptr @proto_tree_add_subtree(ptr noundef %170, ptr noundef %171, i32 noundef %172, i32 noundef %175, i32 noundef %176, ptr noundef null, ptr noundef @.str.1070)
  store ptr %177, ptr %15, align 8
  br label %178

178:                                              ; preds = %183, %169
  %179 = load ptr, ptr %5, align 8
  %180 = load i32, ptr %6, align 4
  %181 = call i32 @tvb_reported_length_remaining(ptr noundef %179, i32 noundef %180)
  %182 = icmp sgt i32 %181, 0
  br i1 %182, label %183, label %191

183:                                              ; preds = %178
  %184 = load ptr, ptr %15, align 8
  %185 = load i32, ptr @hf_dvbci_req_type, align 4
  %186 = load ptr, ptr %5, align 8
  %187 = load i32, ptr %6, align 4
  %188 = call ptr @proto_tree_add_item(ptr noundef %184, i32 noundef %185, ptr noundef %186, i32 noundef %187, i32 noundef 1, i32 noundef 0)
  %189 = load i32, ptr %6, align 4
  %190 = add i32 %189, 1
  store i32 %190, ptr %6, align 4
  br label %178, !llvm.loop !25

191:                                              ; preds = %178
  br label %192

192:                                              ; preds = %191, %165
  br label %193

193:                                              ; preds = %192, %156
  br label %194

194:                                              ; preds = %193, %145
  %195 = load i8, ptr %9, align 1
  %196 = zext i8 %195 to i32
  %197 = icmp eq i32 %196, 2
  br i1 %197, label %198, label %208

198:                                              ; preds = %194
  %199 = load i8, ptr %10, align 1, !range !9, !noundef !10
  %200 = trunc i8 %199 to i1
  br i1 %200, label %201, label %208

201:                                              ; preds = %198
  %202 = load i8, ptr %11, align 1, !range !9, !noundef !10
  %203 = trunc i8 %202 to i1
  br i1 %203, label %208, label %204

204:                                              ; preds = %201
  %205 = load ptr, ptr %7, align 8
  %206 = getelementptr inbounds nuw %struct._packet_info, ptr %205, i32 0, i32 1
  %207 = load ptr, ptr %206, align 8
  call void @col_append_sep_str(ptr noundef %207, i32 noundef 25, ptr noundef null, ptr noundef @.str.1071)
  br label %208

208:                                              ; preds = %204, %201, %198, %194
  store i32 0, ptr %16, align 4
  br label %209

209:                                              ; preds = %208, %155, %93
  call void @llvm.lifetime.end.p0(i64 8, ptr %15) #11
  call void @llvm.lifetime.end.p0(i64 4, ptr %14) #11
  call void @llvm.lifetime.end.p0(i64 8, ptr %13) #11
  call void @llvm.lifetime.end.p0(i64 1, ptr %12) #11
  call void @llvm.lifetime.end.p0(i64 1, ptr %11) #11
  call void @llvm.lifetime.end.p0(i64 1, ptr %10) #11
  call void @llvm.lifetime.end.p0(i64 1, ptr %9) #11
  %210 = load i32, ptr %16, align 4
  switch i32 %210, label %212 [
    i32 0, label %211
    i32 1, label %211
  ]

211:                                              ; preds = %209, %209
  ret void

212:                                              ; preds = %209
  unreachable
}