; Function Attrs: null_pointer_is_valid sspstrong uwtable
define internal fastcc void @dissect_dvbci_ami_file_ack(ptr noundef %0, i32 noundef %1, ptr noundef %2, ptr noundef %3) unnamed_addr #1 {
  %5 = add i32 %1, 1
  %6 = tail call zeroext i8 @tvb_get_uint8(ptr noundef %0, i32 noundef %5)
  %7 = zext i8 %6 to i32
  %.not97 = icmp eq i8 %6, 2
  br i1 %.not97, label %8, label %14

8:                                                ; preds = %4
  %9 = tail call zeroext i8 @tvb_get_uint8(ptr noundef %0, i32 noundef %1)
  %10 = load i32, ptr @hf_dvbci_req_ok, align 4
  %11 = tail call ptr @proto_tree_add_item(ptr noundef %3, i32 noundef %10, ptr noundef %0, i32 noundef %1, i32 noundef 1, i32 noundef 0)
  %12 = and i8 %9, 2
  %13 = icmp eq i8 %12, 0
  br label %14

14:                                               ; preds = %8, %4
  %brmerge = phi i1 [ %13, %8 ], [ true, %4 ]
  %15 = tail call zeroext i8 @tvb_get_uint8(ptr noundef %0, i32 noundef %1)
  %16 = and i8 %15, 1
  %.not = icmp ne i8 %16, 0
  %17 = load i32, ptr @hf_dvbci_file_ok, align 4
  %18 = tail call ptr @proto_tree_add_item(ptr noundef %3, i32 noundef %17, ptr noundef %0, i32 noundef %1, i32 noundef 1, i32 noundef 0)
  %19 = load i32, ptr @hf_dvbci_req_type, align 4
  %20 = tail call ptr @proto_tree_add_item(ptr noundef %3, i32 noundef %19, ptr noundef %0, i32 noundef %5, i32 noundef 1, i32 noundef 0)
  %21 = getelementptr inbounds nuw i8, ptr %2, i64 8
  %22 = load ptr, ptr %21, align 8
  %23 = tail call ptr @val_to_str_const(i32 noundef %7, ptr noundef nonnull @dvbci_req_type, ptr noundef nonnull @.str.1006)
  tail call void @col_append_sep_str(ptr noundef %22, i32 noundef 25, ptr noundef nonnull @.str.990, ptr noundef %23)
  %24 = add i32 %1, 2
  switch i8 %6, label %.loopexit [
    i8 2, label %25
    i8 0, label %25
    i8 1, label %51
    i8 3, label %57
  ]

25:                                               ; preds = %14, %14
  %26 = tail call zeroext i8 @tvb_get_uint8(ptr noundef %0, i32 noundef %24)
  %27 = load i32, ptr @hf_dvbci_file_name_len, align 4
  %28 = tail call ptr @proto_tree_add_item(ptr noundef %3, i32 noundef %27, ptr noundef %0, i32 noundef %24, i32 noundef 1, i32 noundef 0)
  %29 = add i32 %1, 3
  %30 = getelementptr inbounds nuw i8, ptr %2, i64 408
  %31 = load ptr, ptr %30, align 8
  %32 = zext i8 %26 to i32
  %33 = tail call ptr @tvb_get_string_enc(ptr noundef %31, ptr noundef %0, i32 noundef %29, i32 noundef %32, i32 noundef 0)
  %.not88 = icmp eq ptr %33, null
  br i1 %.not88, label %70, label %34

34:                                               ; preds = %25
  %35 = load ptr, ptr %21, align 8
  tail call void @col_append_sep_str(ptr noundef %35, i32 noundef 25, ptr noundef nonnull @.str.1020, ptr noundef nonnull %33)
  %36 = load i32, ptr @hf_dvbci_file_name, align 4
  %37 = tail call ptr (ptr, i32, ptr, i32, i32, ptr, ptr, ...) @proto_tree_add_string_format_value(ptr noundef %3, i32 noundef %36, ptr noundef %0, i32 noundef %29, i32 noundef %32, ptr noundef nonnull %33, ptr noundef nonnull @.str.1069, ptr noundef nonnull %33)
  %38 = add i32 %29, %32
  %39 = tail call i32 @tvb_get_ntohl(ptr noundef %0, i32 noundef %38)
  %40 = load i32, ptr @hf_dvbci_file_data_len, align 4
  %41 = tail call ptr @proto_tree_add_item(ptr noundef %3, i32 noundef %40, ptr noundef %0, i32 noundef %38, i32 noundef 4, i32 noundef 0)
  %.not89 = icmp eq i32 %39, 0
  br i1 %.not89, label %.loopexit, label %42

42:                                               ; preds = %34
  %43 = add i32 %38, 4
  %44 = load ptr, ptr %21, align 8
  tail call void @col_append_str(ptr noundef %44, i32 noundef 35, ptr noundef nonnull @.str.1001)
  %45 = load ptr, ptr %21, align 8
  tail call void @col_set_fence(ptr noundef %45, i32 noundef 35)
  %46 = load ptr, ptr %21, align 8
  tail call void @col_append_str(ptr noundef %46, i32 noundef 35, ptr noundef nonnull @.str.315)
  %47 = load ptr, ptr %21, align 8
  tail call void @col_set_fence(ptr noundef %47, i32 noundef 25)
  %48 = load ptr, ptr @mime_handle, align 8
  %49 = tail call ptr @tvb_new_subset_length(ptr noundef %0, i32 noundef %43, i32 noundef %39)
  %50 = tail call i32 @call_dissector(ptr noundef %48, ptr noundef %49, ptr noundef %2, ptr noundef %3)
  br label %.loopexit

51:                                               ; preds = %14
  %52 = tail call i32 @tvb_reported_length_remaining(ptr noundef %0, i32 noundef %24)
  %53 = icmp slt i32 %52, 1
  br i1 %53, label %70, label %.thread

.thread:                                          ; preds = %51
  %54 = load i32, ptr @hf_dvbci_ami_priv_data, align 4
  %55 = tail call i32 @tvb_reported_length_remaining(ptr noundef %0, i32 noundef %24)
  %56 = tail call ptr @proto_tree_add_item(ptr noundef %3, i32 noundef %54, ptr noundef %0, i32 noundef %24, i32 noundef %55, i32 noundef 0)
  br label %70

57:                                               ; preds = %14
  %58 = tail call i32 @tvb_reported_length_remaining(ptr noundef %0, i32 noundef %24)
  %59 = load i32, ptr @ett_dvbci_ami_req_types, align 4
  %60 = tail call ptr @proto_tree_add_subtree(ptr noundef %3, ptr noundef %0, i32 noundef %24, i32 noundef %58, i32 noundef %59, ptr noundef null, ptr noundef nonnull @.str.1070)
  %61 = tail call i32 @tvb_reported_length_remaining(ptr noundef %0, i32 noundef %24)
  %62 = icmp sgt i32 %61, 0
  br i1 %62, label %.lr.ph, label %.loopexit

.lr.ph:                                           ; preds = %57, %.lr.ph
  %.098 = phi i32 [ %65, %.lr.ph ], [ %24, %57 ]
  %63 = load i32, ptr @hf_dvbci_req_type, align 4
  %64 = tail call ptr @proto_tree_add_item(ptr noundef %60, i32 noundef %63, ptr noundef %0, i32 noundef %.098, i32 noundef 1, i32 noundef 0)
  %65 = add i32 %.098, 1
  %66 = tail call i32 @tvb_reported_length_remaining(ptr noundef %0, i32 noundef %65)
  %67 = icmp sgt i32 %66, 0
  br i1 %67, label %.lr.ph, label %.loopexit, !llvm.loop !26

.loopexit:                                        ; preds = %.lr.ph, %57, %14, %34, %42
  %brmerge91 = select i1 %brmerge, i1 true, i1 %.not
  br i1 %brmerge91, label %70, label %68

68:                                               ; preds = %.loopexit
  %69 = load ptr, ptr %21, align 8
  tail call void @col_append_sep_str(ptr noundef %69, i32 noundef 25, ptr noundef null, ptr noundef nonnull @.str.1071)
  br label %70

70:                                               ; preds = %.thread, %68, %.loopexit, %51, %25
  ret void
}